; Function Attrs: mustprogress uwtable
define hidden void @_ZN6spacer16pred_transformer10initializeERK7obj_mapI9func_declPS0_E(ptr noundef nonnull align 8 dereferenceable(472) %0, ptr noundef nonnull readonly align 8 captures(none) dereferenceable(24) %1) local_unnamed_addr #3 align 2 personality ptr @__gxx_personality_v0 {
  %3 = alloca %class.th_rewriter, align 8
  %4 = alloca %class.params_ref, align 8
  %5 = getelementptr inbounds nuw i8, ptr %0, i64 8
  %6 = load ptr, ptr %5, align 8, !tbaa !33
  %7 = getelementptr inbounds nuw i8, ptr %6, i64 864
  %8 = load ptr, ptr %7, align 8, !tbaa !274
  %9 = getelementptr inbounds nuw i8, ptr %0, i64 264
  %.not.i = icmp eq ptr %8, null
  br i1 %.not.i, label %13, label %_ZN11ast_manager7inc_refEP3ast.exit.i

_ZN11ast_manager7inc_refEP3ast.exit.i:            ; preds = %2
  %10 = getelementptr inbounds nuw i8, ptr %8, i64 8
  %11 = load i32, ptr %10, align 4, !tbaa !103
  %12 = add i32 %11, 1
  store i32 %12, ptr %10, align 4, !tbaa !103
  br label %13

13:                                               ; preds = %_ZN11ast_manager7inc_refEP3ast.exit.i, %2
  %14 = load ptr, ptr %9, align 8, !tbaa !93
  %.not.i4.i = icmp eq ptr %14, null
  br i1 %.not.i4.i, label %_ZN7obj_refI4expr11ast_managerEaSEPS0_.exit, label %15

15:                                               ; preds = %13
  %16 = getelementptr inbounds nuw i8, ptr %0, i64 272
  %17 = load ptr, ptr %16, align 8, !tbaa !102
  %18 = getelementptr inbounds nuw i8, ptr %14, i64 8
  %19 = load i32, ptr %18, align 4, !tbaa !103
  %20 = add i32 %19, -1
  store i32 %20, ptr %18, align 4, !tbaa !103
  %21 = icmp eq i32 %20, 0
  br i1 %21, label %22, label %_ZN7obj_refI4expr11ast_managerEaSEPS0_.exit

22:                                               ; preds = %15
  tail call void @_ZN11ast_manager11delete_nodeEP3ast(ptr noundef nonnull align 8 dereferenceable(976) %17, ptr noundef nonnull %14)
  %.pre = load ptr, ptr %5, align 8, !tbaa !33
  br label %_ZN7obj_refI4expr11ast_managerEaSEPS0_.exit

_ZN7obj_refI4expr11ast_managerEaSEPS0_.exit:      ; preds = %13, %15, %22
  %23 = phi ptr [ %6, %13 ], [ %6, %15 ], [ %.pre, %22 ]
  store ptr %8, ptr %9, align 8, !tbaa !93
  %24 = getelementptr inbounds nuw i8, ptr %23, i64 856
  %25 = load ptr, ptr %24, align 8, !tbaa !213
  %26 = getelementptr inbounds nuw i8, ptr %0, i64 248
  %.not.i5 = icmp eq ptr %25, null
  br i1 %.not.i5, label %30, label %_ZN11ast_manager7inc_refEP3ast.exit.i6

_ZN11ast_manager7inc_refEP3ast.exit.i6:           ; preds = %_ZN7obj_refI4expr11ast_managerEaSEPS0_.exit
  %27 = getelementptr inbounds nuw i8, ptr %25, i64 8
  %28 = load i32, ptr %27, align 4, !tbaa !103
  %29 = add i32 %28, 1
  store i32 %29, ptr %27, align 4, !tbaa !103
  br label %30

30:                                               ; preds = %_ZN11ast_manager7inc_refEP3ast.exit.i6, %_ZN7obj_refI4expr11ast_managerEaSEPS0_.exit
  %31 = load ptr, ptr %26, align 8, !tbaa !93
  %.not.i4.i7 = icmp eq ptr %31, null
  br i1 %.not.i4.i7, label %_ZN7obj_refI4expr11ast_managerEaSEPS0_.exit8, label %32

32:                                               ; preds = %30
  %33 = getelementptr inbounds nuw i8, ptr %0, i64 256
  %34 = load ptr, ptr %33, align 8, !tbaa !102
  %35 = getelementptr inbounds nuw i8, ptr %31, i64 8
  %36 = load i32, ptr %35, align 4, !tbaa !103
  %37 = add i32 %36, -1
  store i32 %37, ptr %35, align 4, !tbaa !103
  %38 = icmp eq i32 %37, 0
  br i1 %38, label %39, label %_ZN7obj_refI4expr11ast_managerEaSEPS0_.exit8

39:                                               ; preds = %32
  tail call void @_ZN11ast_manager11delete_nodeEP3ast(ptr noundef nonnull align 8 dereferenceable(976) %34, ptr noundef nonnull %31)
  br label %_ZN7obj_refI4expr11ast_managerEaSEPS0_.exit8

_ZN7obj_refI4expr11ast_managerEaSEPS0_.exit8:     ; preds = %30, %32, %39
  store ptr %25, ptr %26, align 8, !tbaa !93
  tail call void @_ZN6spacer16pred_transformer10init_rulesERK7obj_mapI9func_declPS0_E(ptr noundef nonnull align 8 dereferenceable(472) %0, ptr noundef nonnull align 8 dereferenceable(24) %1)
  call void @llvm.lifetime.start.p0(i64 16, ptr nonnull %3) #28
  %40 = load ptr, ptr %5, align 8, !tbaa !33
  call void @llvm.lifetime.start.p0(i64 8, ptr nonnull %4) #28
  store ptr null, ptr %4, align 8, !tbaa !523
  invoke void @_ZN11th_rewriterC1ER11ast_managerRK10params_ref(ptr noundef nonnull align 8 dereferenceable(16) %3, ptr noundef nonnull align 8 dereferenceable(976) %40, ptr noundef nonnull align 8 dereferenceable(8) %4)
          to label %41 unwind label %51

41:                                               ; preds = %_ZN7obj_refI4expr11ast_managerEaSEPS0_.exit8
  call void @_ZN10params_refD1Ev(ptr noundef nonnull align 8 dereferenceable(8) %4) #28
  call void @llvm.lifetime.end.p0(i64 8, ptr nonnull %4) #28
  invoke void @_ZN11th_rewriterclER7obj_refI4expr11ast_managerE(ptr noundef nonnull align 8 dereferenceable(16) %3, ptr noundef nonnull align 8 dereferenceable(16) %26)
          to label %42 unwind label %53

42:                                               ; preds = %41
  invoke void @_ZN11th_rewriterclER7obj_refI4expr11ast_managerE(ptr noundef nonnull align 8 dereferenceable(16) %3, ptr noundef nonnull align 8 dereferenceable(16) %9)
          to label %43 unwind label %53

43:                                               ; preds = %42
  %44 = getelementptr inbounds nuw i8, ptr %0, i64 120
  %45 = load ptr, ptr %44, align 8, !tbaa !430
  %46 = load ptr, ptr %26, align 8, !tbaa !93
  invoke void @_ZN6spacer11prop_solver11assert_exprEP4expr(ptr noundef nonnull align 8 dereferenceable(156) %45, ptr noundef %46)
          to label %47 unwind label %53

47:                                               ; preds = %43
  %48 = load ptr, ptr %44, align 8, !tbaa !430
  %49 = load ptr, ptr %9, align 8, !tbaa !93
  invoke void @_ZN6spacer11prop_solver11assert_exprEP4exprj(ptr noundef nonnull align 8 dereferenceable(156) %48, ptr noundef %49, i32 noundef 0)
          to label %50 unwind label %53

50:                                               ; preds = %47
  call void @_ZN11th_rewriterD1Ev(ptr noundef nonnull align 8 dereferenceable(16) %3) #28
  call void @llvm.lifetime.end.p0(i64 16, ptr nonnull %3) #28
  ret void

51:                                               ; preds = %_ZN7obj_refI4expr11ast_managerEaSEPS0_.exit8
  %52 = landingpad { ptr, i32 }
          cleanup
  call void @_ZN10params_refD1Ev(ptr noundef nonnull align 8 dereferenceable(8) %4) #28
  call void @llvm.lifetime.end.p0(i64 8, ptr nonnull %4) #28
  br label %55

53:                                               ; preds = %47, %43, %42, %41
  %54 = landingpad { ptr, i32 }
          cleanup
  call void @_ZN11th_rewriterD1Ev(ptr noundef nonnull align 8 dereferenceable(16) %3) #28
  br label %55

55:                                               ; preds = %53, %51
  %.pn = phi { ptr, i32 } [ %54, %53 ], [ %52, %51 ]
  call void @llvm.lifetime.end.p0(i64 16, ptr nonnull %3) #28
  resume { ptr, i32 } %.pn
}